; ModuleID = 'source-C-CXX/19/636.c'
source_filename = "source-C-CXX/19/636.c"
target datalayout = "e-m:e-p270:32:32-p271:32:32-p272:64:64-i64:64-f80:128-n8:16:32:64-S128"
target triple = "x86_64-pc-linux-gnu"

@.str = private unnamed_addr constant [5 x i8] c"%s%s\00", align 1
@.str.2 = private unnamed_addr constant [3 x i8] c"%s\00", align 1

; Function Attrs: nofree nounwind sspstrong uwtable
define dso_local void @main() local_unnamed_addr #0 {
  %1 = alloca [11 x i8], align 1
  %2 = alloca [4 x i8], align 1
  %3 = getelementptr inbounds [11 x i8], [11 x i8]* %1, i64 0, i64 0
  call void @llvm.lifetime.start.p0i8(i64 11, i8* nonnull %3) #5
  %4 = getelementptr inbounds [4 x i8], [4 x i8]* %2, i64 0, i64 0
  call void @llvm.lifetime.start.p0i8(i64 4, i8* nonnull %4) #5
  %5 = call i32 (i8*, ...) @__isoc99_scanf(i8* getelementptr inbounds ([5 x i8], [5 x i8]* @.str, i64 0, i64 0), i8* nonnull %3, i8* nonnull %4)
  %6 = icmp eq i32 %5, -1
  br i1 %6, label %117, label %7

7:                                                ; preds = %0, %113
  %8 = call i64 @strlen(i8* noundef nonnull %3) #6
  %9 = trunc i64 %8 to i32
  %10 = icmp sgt i32 %9, 1
  br i1 %10, label %11, label %44

11:                                               ; preds = %7
  %12 = and i64 %8, 4294967295
  %13 = add nsw i64 %12, -1
  %14 = add nsw i64 %12, -2
  %15 = and i64 %13, 3
  %16 = icmp ult i64 %14, 3
  br i1 %16, label %19, label %17

17:                                               ; preds = %11
  %18 = and i64 %13, -4
  br label %48

19:                                               ; preds = %48, %11
  %20 = phi i32 [ undef, %11 ], [ %86, %48 ]
  %21 = phi i64 [ 1, %11 ], [ %87, %48 ]
  %22 = phi i32 [ 0, %11 ], [ %86, %48 ]
  %23 = icmp eq i64 %15, 0
  br i1 %23, label %39, label %24

24:                                               ; preds = %19, %24
  %25 = phi i64 [ %36, %24 ], [ %21, %19 ]
  %26 = phi i32 [ %35, %24 ], [ %22, %19 ]
  %27 = phi i64 [ %37, %24 ], [ %15, %19 ]
  %28 = getelementptr inbounds [11 x i8], [11 x i8]* %1, i64 0, i64 %25
  %29 = load i8, i8* %28, align 1, !tbaa !5
  %30 = sext i32 %26 to i64
  %31 = getelementptr inbounds [11 x i8], [11 x i8]* %1, i64 0, i64 %30
  %32 = load i8, i8* %31, align 1, !tbaa !5
  %33 = icmp sgt i8 %29, %32
  %34 = trunc i64 %25 to i32
  %35 = select i1 %33, i32 %34, i32 %26
  %36 = add nuw nsw i64 %25, 1
  %37 = add i64 %27, -1
  %38 = icmp eq i64 %37, 0
  br i1 %38, label %39, label %24, !llvm.loop !8

39:                                               ; preds = %24, %19
  %40 = phi i32 [ %20, %19 ], [ %35, %24 ]
  %41 = icmp slt i32 %40, 0
  br i1 %41, label %42, label %44

42:                                               ; preds = %39
  %43 = add nsw i32 %40, 1
  br label %98

44:                                               ; preds = %7, %39
  %45 = phi i32 [ %40, %39 ], [ 0, %7 ]
  %46 = add nuw i32 %45, 1
  %47 = zext i32 %46 to i64
  br label %90

48:                                               ; preds = %48, %17
  %49 = phi i64 [ 1, %17 ], [ %87, %48 ]
  %50 = phi i32 [ 0, %17 ], [ %86, %48 ]
  %51 = phi i64 [ %18, %17 ], [ %88, %48 ]
  %52 = getelementptr inbounds [11 x i8], [11 x i8]* %1, i64 0, i64 %49
  %53 = load i8, i8* %52, align 1, !tbaa !5
  %54 = sext i32 %50 to i64
  %55 = getelementptr inbounds [11 x i8], [11 x i8]* %1, i64 0, i64 %54
  %56 = load i8, i8* %55, align 1, !tbaa !5
  %57 = icmp sgt i8 %53, %56
  %58 = trunc i64 %49 to i32
  %59 = select i1 %57, i32 %58, i32 %50
  %60 = add nuw nsw i64 %49, 1
  %61 = getelementptr inbounds [11 x i8], [11 x i8]* %1, i64 0, i64 %60
  %62 = load i8, i8* %61, align 1, !tbaa !5
  %63 = sext i32 %59 to i64
  %64 = getelementptr inbounds [11 x i8], [11 x i8]* %1, i64 0, i64 %63
  %65 = load i8, i8* %64, align 1, !tbaa !5
  %66 = icmp sgt i8 %62, %65
  %67 = trunc i64 %60 to i32
  %68 = select i1 %66, i32 %67, i32 %59
  %69 = add nuw nsw i64 %49, 2
  %70 = getelementptr inbounds [11 x i8], [11 x i8]* %1, i64 0, i64 %69
  %71 = load i8, i8* %70, align 1, !tbaa !5
  %72 = sext i32 %68 to i64
  %73 = getelementptr inbounds [11 x i8], [11 x i8]* %1, i64 0, i64 %72
  %74 = load i8, i8* %73, align 1, !tbaa !5
  %75 = icmp sgt i8 %71, %74
  %76 = trunc i64 %69 to i32
  %77 = select i1 %75, i32 %76, i32 %68
  %78 = add nuw nsw i64 %49, 3
  %79 = getelementptr inbounds [11 x i8], [11 x i8]* %1, i64 0, i64 %78
  %80 = load i8, i8* %79, align 1, !tbaa !5
  %81 = sext i32 %77 to i64
  %82 = getelementptr inbounds [11 x i8], [11 x i8]* %1, i64 0, i64 %81
  %83 = load i8, i8* %82, align 1, !tbaa !5
  %84 = icmp sgt i8 %80, %83
  %85 = trunc i64 %78 to i32
  %86 = select i1 %84, i32 %85, i32 %77
  %87 = add nuw nsw i64 %49, 4
  %88 = add i64 %51, -4
  %89 = icmp eq i64 %88, 0
  br i1 %89, label %19, label %48, !llvm.loop !10

90:                                               ; preds = %44, %90
  %91 = phi i64 [ 0, %44 ], [ %96, %90 ]
  %92 = getelementptr inbounds [11 x i8], [11 x i8]* %1, i64 0, i64 %91
  %93 = load i8, i8* %92, align 1, !tbaa !5
  %94 = sext i8 %93 to i32
  %95 = call i32 @putchar(i32 %94)
  %96 = add nuw nsw i64 %91, 1
  %97 = icmp eq i64 %96, %47
  br i1 %97, label %98, label %90, !llvm.loop !12

98:                                               ; preds = %90, %42
  %99 = phi i32 [ %43, %42 ], [ %46, %90 ]
  %100 = call i32 (i8*, ...) @printf(i8* nonnull dereferenceable(1) getelementptr inbounds ([3 x i8], [3 x i8]* @.str.2, i64 0, i64 0), i8* nonnull %4)
  %101 = icmp slt i32 %99, %9
  br i1 %101, label %102, label %113

102:                                              ; preds = %98
  %103 = sext i32 %99 to i64
  br label %104

104:                                              ; preds = %102, %104
  %105 = phi i64 [ %103, %102 ], [ %110, %104 ]
  %106 = getelementptr inbounds [11 x i8], [11 x i8]* %1, i64 0, i64 %105
  %107 = load i8, i8* %106, align 1, !tbaa !5
  %108 = sext i8 %107 to i32
  %109 = call i32 @putchar(i32 %108)
  %110 = add nsw i64 %105, 1
  %111 = trunc i64 %110 to i32
  %112 = icmp eq i32 %111, %9
  br i1 %112, label %113, label %104, !llvm.loop !13

113:                                              ; preds = %104, %98
  %114 = call i32 @putchar(i32 10)
  %115 = call i32 (i8*, ...) @__isoc99_scanf(i8* getelementptr inbounds ([5 x i8], [5 x i8]* @.str, i64 0, i64 0), i8* nonnull %3, i8* nonnull %4)
  %116 = icmp eq i32 %115, -1
  br i1 %116, label %117, label %7, !llvm.loop !14

117:                                              ; preds = %113, %0
  call void @llvm.lifetime.end.p0i8(i64 4, i8* nonnull %4) #5
  call void @llvm.lifetime.end.p0i8(i64 11, i8* nonnull %3) #5
  ret void
}

; Function Attrs: argmemonly mustprogress nofree nosync nounwind willreturn
declare void @llvm.lifetime.start.p0i8(i64 immarg, i8* nocapture) #1

; Function Attrs: nofree nounwind
declare noundef i32 @__isoc99_scanf(i8* nocapture noundef readonly, ...) local_unnamed_addr #2

; Function Attrs: argmemonly mustprogress nofree nounwind readonly willreturn
declare i64 @strlen(i8* nocapture) local_unnamed_addr #3

; Function Attrs: nofree nounwind
declare noundef i32 @printf(i8* nocapture noundef readonly, ...) local_unnamed_addr #2

; Function Attrs: argmemonly mustprogress nofree nosync nounwind willreturn
declare void @llvm.lifetime.end.p0i8(i64 immarg, i8* nocapture) #1

; Function Attrs: nofree nounwind
declare noundef i32 @putchar(i32 noundef) local_unnamed_addr #4


!llvm.module.flags = !{!0, !1, !2, !3}
!llvm.ident = !{!4}

!0 = !{i32 1, !"wchar_size", i32 4}
!1 = !{i32 7, !"PIC Level", i32 2}
!2 = !{i32 7, !"PIE Level", i32 2}
!3 = !{i32 7, !"uwtable", i32 1}
!4 = !{!"clang version 13.0.0"}
!5 = !{!6, !6, i64 0}
!6 = !{!"omnipotent char", !7, i64 0}
!7 = !{!"Simple C/C++ TBAA"}
!8 = distinct !{!8, !9}
!9 = !{!"llvm.loop.unroll.disable"}
!10 = distinct !{!10, !11}
!11 = !{!"llvm.loop.mustprogress"}
!12 = distinct !{!12, !11}
!13 = distinct !{!13, !11}
!14 = distinct !{!14, !11}
